; Function Attrs: nofree nounwind uwtable
define noalias noundef ptr @Gia_ManRequiredLevel(ptr noundef readonly captures(none) %0) local_unnamed_addr #15 {
  %2 = tail call ptr @Gia_ManReverseLevel(ptr noundef %0)
  %3 = getelementptr inbounds nuw i8, ptr %0, i64 64
  %4 = load ptr, ptr %3, align 8
  %5 = getelementptr i8, ptr %4, i64 4
  %.val28 = load i32, ptr %5, align 4
  %6 = icmp sgt i32 %.val28, 0
  br i1 %6, label %.lr.ph, label %.critedge

.lr.ph:                                           ; preds = %1
  %7 = getelementptr i8, ptr %0, i64 32
  %.val29 = load ptr, ptr %7, align 8
  %.not = icmp eq ptr %.val29, null
  br i1 %.not, label %.critedge, label %.lr.ph.split

.lr.ph.split:                                     ; preds = %.lr.ph
  %8 = getelementptr i8, ptr %2, i64 8
  %9 = getelementptr i8, ptr %4, i64 8
  %.val30.val = load ptr, ptr %9, align 8
  %.val27 = load ptr, ptr %8, align 8
  %wide.trip.count = zext nneg i32 %.val28 to i64
  br label %10

10:                                               ; preds = %.lr.ph.split, %10
  %indvars.iv = phi i64 [ 0, %.lr.ph.split ], [ %indvars.iv.next, %10 ]
  %.033 = phi i32 [ 0, %.lr.ph.split ], [ %16, %10 ]
  %11 = getelementptr inbounds nuw i32, ptr %.val30.val, i64 %indvars.iv
  %12 = load i32, ptr %11, align 4
  %13 = sext i32 %12 to i64
  %14 = getelementptr inbounds i32, ptr %.val27, i64 %13
  %15 = load i32, ptr %14, align 4
  %16 = tail call noundef i32 @llvm.smax.i32(i32 %.033, i32 %15)
  %indvars.iv.next = add nuw nsw i64 %indvars.iv, 1
  %exitcond.not = icmp eq i64 %indvars.iv.next, %wide.trip.count
  br i1 %exitcond.not, label %.critedge, label %10, !llvm.loop !29

.critedge:                                        ; preds = %10, %.lr.ph, %1
  %.0.lcssa = phi i32 [ 0, %1 ], [ 0, %.lr.ph ], [ %16, %10 ]
  %17 = getelementptr i8, ptr %0, i64 32
  %18 = getelementptr inbounds nuw i8, ptr %0, i64 24
  %19 = load i32, ptr %18, align 8
  %20 = icmp sgt i32 %19, 0
  br i1 %20, label %.lr.ph37, label %.critedge2

.lr.ph37:                                         ; preds = %.critedge
  %21 = getelementptr i8, ptr %2, i64 8
  br label %22

22:                                               ; preds = %.lr.ph37, %23
  %indvars.iv40 = phi i64 [ 0, %.lr.ph37 ], [ %indvars.iv.next41, %23 ]
  %.val = load ptr, ptr %17, align 8
  %.not24 = icmp eq ptr %.val, null
  br i1 %.not24, label %.critedge2, label %23

23:                                               ; preds = %22
  %.val26 = load ptr, ptr %21, align 8
  %24 = getelementptr inbounds nuw i32, ptr %.val26, i64 %indvars.iv40
  %25 = load i32, ptr %24, align 4
  %26 = sub nsw i32 %.0.lcssa, %25
  store i32 %26, ptr %24, align 4
  %indvars.iv.next41 = add nuw nsw i64 %indvars.iv40, 1
  %27 = load i32, ptr %18, align 8
  %28 = sext i32 %27 to i64
  %29 = icmp slt i64 %indvars.iv.next41, %28
  br i1 %29, label %22, label %.critedge2, !llvm.loop !30

.critedge2:                                       ; preds = %22, %23, %.critedge
  ret ptr %2
}